; Function Attrs: mustprogress uwtable
define internal fastcc void @_ZNSt12__shared_ptrIN2cv6detail14BasicVectorRefELN9__gnu_cxx12_Lock_policyE2EEC2INS1_10VectorRefTIN6custom12_GLOBAL__N_14FaceEEEvEEPT_(ptr noundef nonnull writeonly align 8 captures(none) dereferenceable(16) initializes((0, 16)) %0, ptr noundef nonnull %1) unnamed_addr #4 align 2 personality ptr @__gxx_personality_v0 {
  store ptr %1, ptr %0, align 8, !tbaa !524
  %3 = getelementptr inbounds nuw i8, ptr %0, i64 8
  store ptr null, ptr %3, align 8, !tbaa !65
  %4 = invoke noalias noundef nonnull dereferenceable(24) ptr @_Znwm(i64 noundef 24) #38
          to label %_ZNSt14__shared_countILN9__gnu_cxx12_Lock_policyE2EEC2IPN2cv6detail10VectorRefTIN6custom12_GLOBAL__N_14FaceEEEEET_St17integral_constantIbLb0EE.exit unwind label %5

5:                                                ; preds = %2
  %6 = landingpad { ptr, i32 }
          catch ptr null
  %7 = extractvalue { ptr, i32 } %6, 0
  %8 = tail call ptr @__cxa_begin_catch(ptr %7) #35
  %9 = getelementptr inbounds nuw i8, ptr %1, i64 24
  %10 = load i64, ptr %9, align 8, !tbaa !511
  %11 = getelementptr inbounds nuw [4 x ptr], ptr @constinit.63, i64 0, i64 %10
  %12 = load ptr, ptr %11, align 8, !tbaa !89
  %13 = getelementptr inbounds nuw i8, ptr %1, i64 32
  invoke void %12(ptr noundef nonnull %13)
          to label %_ZN2cv6detail10VectorRefTIN6custom12_GLOBAL__N_14FaceEED2Ev.exit.i.i unwind label %14

14:                                               ; preds = %5
  %15 = landingpad { ptr, i32 }
          catch ptr null
  %16 = extractvalue { ptr, i32 } %15, 0
  tail call void @__clang_call_terminate(ptr %16) #39
  unreachable

_ZN2cv6detail10VectorRefTIN6custom12_GLOBAL__N_14FaceEED2Ev.exit.i.i: ; preds = %5
  tail call void @_ZdlPv(ptr noundef nonnull %1) #36
  invoke void @__cxa_rethrow() #37
          to label %23 unwind label %17

17:                                               ; preds = %_ZN2cv6detail10VectorRefTIN6custom12_GLOBAL__N_14FaceEED2Ev.exit.i.i
  %18 = landingpad { ptr, i32 }
          cleanup
  invoke void @__cxa_end_catch()
          to label %19 unwind label %20

19:                                               ; preds = %17
  resume { ptr, i32 } %18

20:                                               ; preds = %17
  %21 = landingpad { ptr, i32 }
          catch ptr null
  %22 = extractvalue { ptr, i32 } %21, 0
  tail call void @__clang_call_terminate(ptr %22) #39
  unreachable

23:                                               ; preds = %_ZN2cv6detail10VectorRefTIN6custom12_GLOBAL__N_14FaceEED2Ev.exit.i.i
  unreachable

_ZNSt14__shared_countILN9__gnu_cxx12_Lock_policyE2EEC2IPN2cv6detail10VectorRefTIN6custom12_GLOBAL__N_14FaceEEEEET_St17integral_constantIbLb0EE.exit: ; preds = %2
  %24 = getelementptr inbounds nuw i8, ptr %4, i64 8
  store i32 1, ptr %24, align 8, !tbaa !68
  %25 = getelementptr inbounds nuw i8, ptr %4, i64 12
  store i32 1, ptr %25, align 4, !tbaa !70
  store ptr getelementptr inbounds nuw inrange(-16, 40) (i8, ptr @_ZTVSt15_Sp_counted_ptrIPN2cv6detail10VectorRefTIN6custom12_GLOBAL__N_14FaceEEELN9__gnu_cxx12_Lock_policyE2EE, i64 16), ptr %4, align 8, !tbaa !71
  %26 = getelementptr inbounds nuw i8, ptr %4, i64 16
  store ptr %1, ptr %26, align 8, !tbaa !986
  store ptr %4, ptr %3, align 8, !tbaa !65
  ret void
}